
_forktest:     file format elf32-i386


Disassembly of section .text:

00000000 <main>:
  printf(1, "fork test OK\n");
}

int
main(void)
{
   0:	8d 4c 24 04          	lea    0x4(%esp),%ecx
   4:	83 e4 f0             	and    $0xfffffff0,%esp
   7:	ff 71 fc             	pushl  -0x4(%ecx)
   a:	55                   	push   %ebp
   b:	89 e5                	mov    %esp,%ebp
   d:	51                   	push   %ecx
   e:	83 ec 04             	sub    $0x4,%esp
  forktest();
  11:	e8 3a 00 00 00       	call   50 <forktest>
    exit(0);
  16:	83 ec 0c             	sub    $0xc,%esp
  19:	6a 00                	push   $0x0
  1b:	e8 a2 03 00 00       	call   3c2 <exit>

00000020 <printf>:

#define N  1000

void
printf(int fd, const char *s, ...)
{
  20:	55                   	push   %ebp
  21:	89 e5                	mov    %esp,%ebp
  23:	53                   	push   %ebx
  24:	83 ec 10             	sub    $0x10,%esp
  27:	8b 5d 0c             	mov    0xc(%ebp),%ebx
  write(fd, s, strlen(s));
  2a:	53                   	push   %ebx
  2b:	e8 d0 01 00 00       	call   200 <strlen>
  30:	83 c4 0c             	add    $0xc,%esp
  33:	50                   	push   %eax
  34:	53                   	push   %ebx
  35:	ff 75 08             	pushl  0x8(%ebp)
  38:	e8 a5 03 00 00       	call   3e2 <write>
}
  3d:	83 c4 10             	add    $0x10,%esp
  40:	8b 5d fc             	mov    -0x4(%ebp),%ebx
  43:	c9                   	leave  
  44:	c3                   	ret    
  45:	8d 74 26 00          	lea    0x0(%esi,%eiz,1),%esi
  49:	8d bc 27 00 00 00 00 	lea    0x0(%edi,%eiz,1),%edi

00000050 <forktest>:

void
forktest(void)
{
  50:	55                   	push   %ebp
  51:	89 e5                	mov    %esp,%ebp
  53:	53                   	push   %ebx
  int n, pid;

  printf(1, "fork test\n");

  for(n=0; n<N; n++){
  54:	31 db                	xor    %ebx,%ebx
  write(fd, s, strlen(s));
}

void
forktest(void)
{
  56:	83 ec 10             	sub    $0x10,%esp
#define N  1000

void
printf(int fd, const char *s, ...)
{
  write(fd, s, strlen(s));
  59:	68 6c 04 00 00       	push   $0x46c
  5e:	e8 9d 01 00 00       	call   200 <strlen>
  63:	83 c4 0c             	add    $0xc,%esp
  66:	50                   	push   %eax
  67:	68 6c 04 00 00       	push   $0x46c
  6c:	6a 01                	push   $0x1
  6e:	e8 6f 03 00 00       	call   3e2 <write>
  73:	83 c4 10             	add    $0x10,%esp
  76:	eb 19                	jmp    91 <forktest+0x41>
  78:	90                   	nop
  79:	8d b4 26 00 00 00 00 	lea    0x0(%esi,%eiz,1),%esi

  for(n=0; n<N; n++){
    pid = fork();
    if(pid < 0)
      break;
    if(pid == 0)
  80:	0f 84 93 00 00 00    	je     119 <forktest+0xc9>
{
  int n, pid;

  printf(1, "fork test\n");

  for(n=0; n<N; n++){
  86:	83 c3 01             	add    $0x1,%ebx
  89:	81 fb e8 03 00 00    	cmp    $0x3e8,%ebx
  8f:	74 5f                	je     f0 <forktest+0xa0>
    pid = fork();
  91:	e8 24 03 00 00       	call   3ba <fork>
    if(pid < 0)
  96:	85 c0                	test   %eax,%eax
  98:	79 e6                	jns    80 <forktest+0x30>
  if(n == N){
    printf(1, "fork claimed to work N times!\n", N);
      exit(0);
  }

  for(; n > 0; n--){
  9a:	85 db                	test   %ebx,%ebx
  9c:	74 18                	je     b6 <forktest+0x66>
  9e:	66 90                	xchg   %ax,%ax
    if(wait(0) < 0){
  a0:	83 ec 0c             	sub    $0xc,%esp
  a3:	6a 00                	push   $0x0
  a5:	e8 20 03 00 00       	call   3ca <wait>
  aa:	83 c4 10             	add    $0x10,%esp
  ad:	85 c0                	test   %eax,%eax
  af:	78 72                	js     123 <forktest+0xd3>
  if(n == N){
    printf(1, "fork claimed to work N times!\n", N);
      exit(0);
  }

  for(; n > 0; n--){
  b1:	83 eb 01             	sub    $0x1,%ebx
  b4:	75 ea                	jne    a0 <forktest+0x50>
      printf(1, "wait stopped early\n");
        exit(0);
    }
  }

  if(wait(0) != -1){
  b6:	83 ec 0c             	sub    $0xc,%esp
  b9:	6a 00                	push   $0x0
  bb:	e8 0a 03 00 00       	call   3ca <wait>
  c0:	83 c4 10             	add    $0x10,%esp
  c3:	83 f8 ff             	cmp    $0xffffffff,%eax
  c6:	0f 85 80 00 00 00    	jne    14c <forktest+0xfc>
#define N  1000

void
printf(int fd, const char *s, ...)
{
  write(fd, s, strlen(s));
  cc:	83 ec 0c             	sub    $0xc,%esp
  cf:	68 9e 04 00 00       	push   $0x49e
  d4:	e8 27 01 00 00       	call   200 <strlen>
  d9:	83 c4 0c             	add    $0xc,%esp
  dc:	50                   	push   %eax
  dd:	68 9e 04 00 00       	push   $0x49e
  e2:	6a 01                	push   $0x1
  e4:	e8 f9 02 00 00       	call   3e2 <write>
    printf(1, "wait got too many\n");
      exit(0);
  }

  printf(1, "fork test OK\n");
}
  e9:	8b 5d fc             	mov    -0x4(%ebp),%ebx
  ec:	c9                   	leave  
  ed:	c3                   	ret    
  ee:	66 90                	xchg   %ax,%ax
#define N  1000

void
printf(int fd, const char *s, ...)
{
  write(fd, s, strlen(s));
  f0:	83 ec 0c             	sub    $0xc,%esp
  f3:	68 ac 04 00 00       	push   $0x4ac
  f8:	e8 03 01 00 00       	call   200 <strlen>
  fd:	83 c4 0c             	add    $0xc,%esp
 100:	50                   	push   %eax
 101:	68 ac 04 00 00       	push   $0x4ac
 106:	6a 01                	push   $0x1
 108:	e8 d5 02 00 00       	call   3e2 <write>
        exit(0);
  }

  if(n == N){
    printf(1, "fork claimed to work N times!\n", N);
      exit(0);
 10d:	c7 04 24 00 00 00 00 	movl   $0x0,(%esp)
 114:	e8 a9 02 00 00       	call   3c2 <exit>
  for(n=0; n<N; n++){
    pid = fork();
    if(pid < 0)
      break;
    if(pid == 0)
        exit(0);
 119:	83 ec 0c             	sub    $0xc,%esp
 11c:	6a 00                	push   $0x0
 11e:	e8 9f 02 00 00       	call   3c2 <exit>
#define N  1000

void
printf(int fd, const char *s, ...)
{
  write(fd, s, strlen(s));
 123:	83 ec 0c             	sub    $0xc,%esp
 126:	68 77 04 00 00       	push   $0x477
 12b:	e8 d0 00 00 00       	call   200 <strlen>
 130:	83 c4 0c             	add    $0xc,%esp
 133:	50                   	push   %eax
 134:	68 77 04 00 00       	push   $0x477
 139:	6a 01                	push   $0x1
 13b:	e8 a2 02 00 00       	call   3e2 <write>
  }

  for(; n > 0; n--){
    if(wait(0) < 0){
      printf(1, "wait stopped early\n");
        exit(0);
 140:	c7 04 24 00 00 00 00 	movl   $0x0,(%esp)
 147:	e8 76 02 00 00       	call   3c2 <exit>
#define N  1000

void
printf(int fd, const char *s, ...)
{
  write(fd, s, strlen(s));
 14c:	83 ec 0c             	sub    $0xc,%esp
 14f:	68 8b 04 00 00       	push   $0x48b
 154:	e8 a7 00 00 00       	call   200 <strlen>
 159:	83 c4 0c             	add    $0xc,%esp
 15c:	50                   	push   %eax
 15d:	68 8b 04 00 00       	push   $0x48b
 162:	6a 01                	push   $0x1
 164:	e8 79 02 00 00       	call   3e2 <write>
    }
  }

  if(wait(0) != -1){
    printf(1, "wait got too many\n");
      exit(0);
 169:	c7 04 24 00 00 00 00 	movl   $0x0,(%esp)
 170:	e8 4d 02 00 00       	call   3c2 <exit>
 175:	66 90                	xchg   %ax,%ax
 177:	66 90                	xchg   %ax,%ax
 179:	66 90                	xchg   %ax,%ax
 17b:	66 90                	xchg   %ax,%ax
 17d:	66 90                	xchg   %ax,%ax
 17f:	90                   	nop

00000180 <strcpy>:
#include "user.h"
#include "x86.h"

char*
strcpy(char *s, const char *t)
{
 180:	55                   	push   %ebp
 181:	89 e5                	mov    %esp,%ebp
 183:	53                   	push   %ebx
 184:	8b 45 08             	mov    0x8(%ebp),%eax
 187:	8b 4d 0c             	mov    0xc(%ebp),%ecx
  char *os;

  os = s;
  while((*s++ = *t++) != 0)
 18a:	89 c2                	mov    %eax,%edx
 18c:	8d 74 26 00          	lea    0x0(%esi,%eiz,1),%esi
 190:	83 c1 01             	add    $0x1,%ecx
 193:	0f b6 59 ff          	movzbl -0x1(%ecx),%ebx
 197:	83 c2 01             	add    $0x1,%edx
 19a:	84 db                	test   %bl,%bl
 19c:	88 5a ff             	mov    %bl,-0x1(%edx)
 19f:	75 ef                	jne    190 <strcpy+0x10>
    ;
  return os;
}
 1a1:	5b                   	pop    %ebx
 1a2:	5d                   	pop    %ebp
 1a3:	c3                   	ret    
 1a4:	8d b6 00 00 00 00    	lea    0x0(%esi),%esi
 1aa:	8d bf 00 00 00 00    	lea    0x0(%edi),%edi

000001b0 <strcmp>:

int
strcmp(const char *p, const char *q)
{
 1b0:	55                   	push   %ebp
 1b1:	89 e5                	mov    %esp,%ebp
 1b3:	56                   	push   %esi
 1b4:	53                   	push   %ebx
 1b5:	8b 55 08             	mov    0x8(%ebp),%edx
 1b8:	8b 4d 0c             	mov    0xc(%ebp),%ecx
  while(*p && *p == *q)
 1bb:	0f b6 02             	movzbl (%edx),%eax
 1be:	0f b6 19             	movzbl (%ecx),%ebx
 1c1:	84 c0                	test   %al,%al
 1c3:	75 1e                	jne    1e3 <strcmp+0x33>
 1c5:	eb 29                	jmp    1f0 <strcmp+0x40>
 1c7:	89 f6                	mov    %esi,%esi
 1c9:	8d bc 27 00 00 00 00 	lea    0x0(%edi,%eiz,1),%edi
    p++, q++;
 1d0:	83 c2 01             	add    $0x1,%edx
}

int
strcmp(const char *p, const char *q)
{
  while(*p && *p == *q)
 1d3:	0f b6 02             	movzbl (%edx),%eax
    p++, q++;
 1d6:	8d 71 01             	lea    0x1(%ecx),%esi
}

int
strcmp(const char *p, const char *q)
{
  while(*p && *p == *q)
 1d9:	0f b6 59 01          	movzbl 0x1(%ecx),%ebx
 1dd:	84 c0                	test   %al,%al
 1df:	74 0f                	je     1f0 <strcmp+0x40>
 1e1:	89 f1                	mov    %esi,%ecx
 1e3:	38 d8                	cmp    %bl,%al
 1e5:	74 e9                	je     1d0 <strcmp+0x20>
    p++, q++;
  return (uchar)*p - (uchar)*q;
 1e7:	29 d8                	sub    %ebx,%eax
}
 1e9:	5b                   	pop    %ebx
 1ea:	5e                   	pop    %esi
 1eb:	5d                   	pop    %ebp
 1ec:	c3                   	ret    
 1ed:	8d 76 00             	lea    0x0(%esi),%esi
}

int
strcmp(const char *p, const char *q)
{
  while(*p && *p == *q)
 1f0:	31 c0                	xor    %eax,%eax
    p++, q++;
  return (uchar)*p - (uchar)*q;
 1f2:	29 d8                	sub    %ebx,%eax
}
 1f4:	5b                   	pop    %ebx
 1f5:	5e                   	pop    %esi
 1f6:	5d                   	pop    %ebp
 1f7:	c3                   	ret    
 1f8:	90                   	nop
 1f9:	8d b4 26 00 00 00 00 	lea    0x0(%esi,%eiz,1),%esi

00000200 <strlen>:

uint
strlen(const char *s)
{
 200:	55                   	push   %ebp
 201:	89 e5                	mov    %esp,%ebp
 203:	8b 4d 08             	mov    0x8(%ebp),%ecx
  int n;

  for(n = 0; s[n]; n++)
 206:	80 39 00             	cmpb   $0x0,(%ecx)
 209:	74 12                	je     21d <strlen+0x1d>
 20b:	31 d2                	xor    %edx,%edx
 20d:	8d 76 00             	lea    0x0(%esi),%esi
 210:	83 c2 01             	add    $0x1,%edx
 213:	80 3c 11 00          	cmpb   $0x0,(%ecx,%edx,1)
 217:	89 d0                	mov    %edx,%eax
 219:	75 f5                	jne    210 <strlen+0x10>
    ;
  return n;
}
 21b:	5d                   	pop    %ebp
 21c:	c3                   	ret    
uint
strlen(const char *s)
{
  int n;

  for(n = 0; s[n]; n++)
 21d:	31 c0                	xor    %eax,%eax
    ;
  return n;
}
 21f:	5d                   	pop    %ebp
 220:	c3                   	ret    
 221:	eb 0d                	jmp    230 <memset>
 223:	90                   	nop
 224:	90                   	nop
 225:	90                   	nop
 226:	90                   	nop
 227:	90                   	nop
 228:	90                   	nop
 229:	90                   	nop
 22a:	90                   	nop
 22b:	90                   	nop
 22c:	90                   	nop
 22d:	90                   	nop
 22e:	90                   	nop
 22f:	90                   	nop

00000230 <memset>:

void*
memset(void *dst, int c, uint n)
{
 230:	55                   	push   %ebp
 231:	89 e5                	mov    %esp,%ebp
 233:	57                   	push   %edi
 234:	8b 55 08             	mov    0x8(%ebp),%edx
}

static inline void
stosb(void *addr, int data, int cnt)
{
  asm volatile("cld; rep stosb" :
 237:	8b 4d 10             	mov    0x10(%ebp),%ecx
 23a:	8b 45 0c             	mov    0xc(%ebp),%eax
 23d:	89 d7                	mov    %edx,%edi
 23f:	fc                   	cld    
 240:	f3 aa                	rep stos %al,%es:(%edi)
  stosb(dst, c, n);
  return dst;
}
 242:	89 d0                	mov    %edx,%eax
 244:	5f                   	pop    %edi
 245:	5d                   	pop    %ebp
 246:	c3                   	ret    
 247:	89 f6                	mov    %esi,%esi
 249:	8d bc 27 00 00 00 00 	lea    0x0(%edi,%eiz,1),%edi

00000250 <strchr>:

char*
strchr(const char *s, char c)
{
 250:	55                   	push   %ebp
 251:	89 e5                	mov    %esp,%ebp
 253:	53                   	push   %ebx
 254:	8b 45 08             	mov    0x8(%ebp),%eax
 257:	8b 5d 0c             	mov    0xc(%ebp),%ebx
  for(; *s; s++)
 25a:	0f b6 10             	movzbl (%eax),%edx
 25d:	84 d2                	test   %dl,%dl
 25f:	74 1d                	je     27e <strchr+0x2e>
    if(*s == c)
 261:	38 d3                	cmp    %dl,%bl
 263:	89 d9                	mov    %ebx,%ecx
 265:	75 0d                	jne    274 <strchr+0x24>
 267:	eb 17                	jmp    280 <strchr+0x30>
 269:	8d b4 26 00 00 00 00 	lea    0x0(%esi,%eiz,1),%esi
 270:	38 ca                	cmp    %cl,%dl
 272:	74 0c                	je     280 <strchr+0x30>
}

char*
strchr(const char *s, char c)
{
  for(; *s; s++)
 274:	83 c0 01             	add    $0x1,%eax
 277:	0f b6 10             	movzbl (%eax),%edx
 27a:	84 d2                	test   %dl,%dl
 27c:	75 f2                	jne    270 <strchr+0x20>
    if(*s == c)
      return (char*)s;
  return 0;
 27e:	31 c0                	xor    %eax,%eax
}
 280:	5b                   	pop    %ebx
 281:	5d                   	pop    %ebp
 282:	c3                   	ret    
 283:	8d b6 00 00 00 00    	lea    0x0(%esi),%esi
 289:	8d bc 27 00 00 00 00 	lea    0x0(%edi,%eiz,1),%edi

00000290 <gets>:

char*
gets(char *buf, int max)
{
 290:	55                   	push   %ebp
 291:	89 e5                	mov    %esp,%ebp
 293:	57                   	push   %edi
 294:	56                   	push   %esi
 295:	53                   	push   %ebx
  int i, cc;
  char c;

  for(i=0; i+1 < max; ){
 296:	31 f6                	xor    %esi,%esi
    cc = read(0, &c, 1);
 298:	8d 7d e7             	lea    -0x19(%ebp),%edi
  return 0;
}

char*
gets(char *buf, int max)
{
 29b:	83 ec 1c             	sub    $0x1c,%esp
  int i, cc;
  char c;

  for(i=0; i+1 < max; ){
 29e:	eb 29                	jmp    2c9 <gets+0x39>
    cc = read(0, &c, 1);
 2a0:	83 ec 04             	sub    $0x4,%esp
 2a3:	6a 01                	push   $0x1
 2a5:	57                   	push   %edi
 2a6:	6a 00                	push   $0x0
 2a8:	e8 2d 01 00 00       	call   3da <read>
    if(cc < 1)
 2ad:	83 c4 10             	add    $0x10,%esp
 2b0:	85 c0                	test   %eax,%eax
 2b2:	7e 1d                	jle    2d1 <gets+0x41>
      break;
    buf[i++] = c;
 2b4:	0f b6 45 e7          	movzbl -0x19(%ebp),%eax
 2b8:	8b 55 08             	mov    0x8(%ebp),%edx
 2bb:	89 de                	mov    %ebx,%esi
    if(c == '\n' || c == '\r')
 2bd:	3c 0a                	cmp    $0xa,%al

  for(i=0; i+1 < max; ){
    cc = read(0, &c, 1);
    if(cc < 1)
      break;
    buf[i++] = c;
 2bf:	88 44 1a ff          	mov    %al,-0x1(%edx,%ebx,1)
    if(c == '\n' || c == '\r')
 2c3:	74 1b                	je     2e0 <gets+0x50>
 2c5:	3c 0d                	cmp    $0xd,%al
 2c7:	74 17                	je     2e0 <gets+0x50>
gets(char *buf, int max)
{
  int i, cc;
  char c;

  for(i=0; i+1 < max; ){
 2c9:	8d 5e 01             	lea    0x1(%esi),%ebx
 2cc:	3b 5d 0c             	cmp    0xc(%ebp),%ebx
 2cf:	7c cf                	jl     2a0 <gets+0x10>
      break;
    buf[i++] = c;
    if(c == '\n' || c == '\r')
      break;
  }
  buf[i] = '\0';
 2d1:	8b 45 08             	mov    0x8(%ebp),%eax
 2d4:	c6 04 30 00          	movb   $0x0,(%eax,%esi,1)
  return buf;
}
 2d8:	8d 65 f4             	lea    -0xc(%ebp),%esp
 2db:	5b                   	pop    %ebx
 2dc:	5e                   	pop    %esi
 2dd:	5f                   	pop    %edi
 2de:	5d                   	pop    %ebp
 2df:	c3                   	ret    
      break;
    buf[i++] = c;
    if(c == '\n' || c == '\r')
      break;
  }
  buf[i] = '\0';
 2e0:	8b 45 08             	mov    0x8(%ebp),%eax
gets(char *buf, int max)
{
  int i, cc;
  char c;

  for(i=0; i+1 < max; ){
 2e3:	89 de                	mov    %ebx,%esi
      break;
    buf[i++] = c;
    if(c == '\n' || c == '\r')
      break;
  }
  buf[i] = '\0';
 2e5:	c6 04 30 00          	movb   $0x0,(%eax,%esi,1)
  return buf;
}
 2e9:	8d 65 f4             	lea    -0xc(%ebp),%esp
 2ec:	5b                   	pop    %ebx
 2ed:	5e                   	pop    %esi
 2ee:	5f                   	pop    %edi
 2ef:	5d                   	pop    %ebp
 2f0:	c3                   	ret    
 2f1:	eb 0d                	jmp    300 <stat>
 2f3:	90                   	nop
 2f4:	90                   	nop
 2f5:	90                   	nop
 2f6:	90                   	nop
 2f7:	90                   	nop
 2f8:	90                   	nop
 2f9:	90                   	nop
 2fa:	90                   	nop
 2fb:	90                   	nop
 2fc:	90                   	nop
 2fd:	90                   	nop
 2fe:	90                   	nop
 2ff:	90                   	nop

00000300 <stat>:

int
stat(const char *n, struct stat *st)
{
 300:	55                   	push   %ebp
 301:	89 e5                	mov    %esp,%ebp
 303:	56                   	push   %esi
 304:	53                   	push   %ebx
  int fd;
  int r;

  fd = open(n, O_RDONLY);
 305:	83 ec 08             	sub    $0x8,%esp
 308:	6a 00                	push   $0x0
 30a:	ff 75 08             	pushl  0x8(%ebp)
 30d:	e8 f0 00 00 00       	call   402 <open>
  if(fd < 0)
 312:	83 c4 10             	add    $0x10,%esp
 315:	85 c0                	test   %eax,%eax
 317:	78 27                	js     340 <stat+0x40>
    return -1;
  r = fstat(fd, st);
 319:	83 ec 08             	sub    $0x8,%esp
 31c:	ff 75 0c             	pushl  0xc(%ebp)
 31f:	89 c3                	mov    %eax,%ebx
 321:	50                   	push   %eax
 322:	e8 f3 00 00 00       	call   41a <fstat>
 327:	89 c6                	mov    %eax,%esi
  close(fd);
 329:	89 1c 24             	mov    %ebx,(%esp)
 32c:	e8 b9 00 00 00       	call   3ea <close>
  return r;
 331:	83 c4 10             	add    $0x10,%esp
 334:	89 f0                	mov    %esi,%eax
}
 336:	8d 65 f8             	lea    -0x8(%ebp),%esp
 339:	5b                   	pop    %ebx
 33a:	5e                   	pop    %esi
 33b:	5d                   	pop    %ebp
 33c:	c3                   	ret    
 33d:	8d 76 00             	lea    0x0(%esi),%esi
  int fd;
  int r;

  fd = open(n, O_RDONLY);
  if(fd < 0)
    return -1;
 340:	b8 ff ff ff ff       	mov    $0xffffffff,%eax
 345:	eb ef                	jmp    336 <stat+0x36>
 347:	89 f6                	mov    %esi,%esi
 349:	8d bc 27 00 00 00 00 	lea    0x0(%edi,%eiz,1),%edi

00000350 <atoi>:
  return r;
}

int
atoi(const char *s)
{
 350:	55                   	push   %ebp
 351:	89 e5                	mov    %esp,%ebp
 353:	53                   	push   %ebx
 354:	8b 4d 08             	mov    0x8(%ebp),%ecx
  int n;

  n = 0;
  while('0' <= *s && *s <= '9')
 357:	0f be 11             	movsbl (%ecx),%edx
 35a:	8d 42 d0             	lea    -0x30(%edx),%eax
 35d:	3c 09                	cmp    $0x9,%al
 35f:	b8 00 00 00 00       	mov    $0x0,%eax
 364:	77 1f                	ja     385 <atoi+0x35>
 366:	8d 76 00             	lea    0x0(%esi),%esi
 369:	8d bc 27 00 00 00 00 	lea    0x0(%edi,%eiz,1),%edi
    n = n*10 + *s++ - '0';
 370:	8d 04 80             	lea    (%eax,%eax,4),%eax
 373:	83 c1 01             	add    $0x1,%ecx
 376:	8d 44 42 d0          	lea    -0x30(%edx,%eax,2),%eax
atoi(const char *s)
{
  int n;

  n = 0;
  while('0' <= *s && *s <= '9')
 37a:	0f be 11             	movsbl (%ecx),%edx
 37d:	8d 5a d0             	lea    -0x30(%edx),%ebx
 380:	80 fb 09             	cmp    $0x9,%bl
 383:	76 eb                	jbe    370 <atoi+0x20>
    n = n*10 + *s++ - '0';
  return n;
}
 385:	5b                   	pop    %ebx
 386:	5d                   	pop    %ebp
 387:	c3                   	ret    
 388:	90                   	nop
 389:	8d b4 26 00 00 00 00 	lea    0x0(%esi,%eiz,1),%esi

00000390 <memmove>:

void*
memmove(void *vdst, const void *vsrc, int n)
{
 390:	55                   	push   %ebp
 391:	89 e5                	mov    %esp,%ebp
 393:	56                   	push   %esi
 394:	53                   	push   %ebx
 395:	8b 5d 10             	mov    0x10(%ebp),%ebx
 398:	8b 45 08             	mov    0x8(%ebp),%eax
 39b:	8b 75 0c             	mov    0xc(%ebp),%esi
  char *dst;
  const char *src;

  dst = vdst;
  src = vsrc;
  while(n-- > 0)
 39e:	85 db                	test   %ebx,%ebx
 3a0:	7e 14                	jle    3b6 <memmove+0x26>
 3a2:	31 d2                	xor    %edx,%edx
 3a4:	8d 74 26 00          	lea    0x0(%esi,%eiz,1),%esi
    *dst++ = *src++;
 3a8:	0f b6 0c 16          	movzbl (%esi,%edx,1),%ecx
 3ac:	88 0c 10             	mov    %cl,(%eax,%edx,1)
 3af:	83 c2 01             	add    $0x1,%edx
  char *dst;
  const char *src;

  dst = vdst;
  src = vsrc;
  while(n-- > 0)
 3b2:	39 da                	cmp    %ebx,%edx
 3b4:	75 f2                	jne    3a8 <memmove+0x18>
    *dst++ = *src++;
  return vdst;
}
 3b6:	5b                   	pop    %ebx
 3b7:	5e                   	pop    %esi
 3b8:	5d                   	pop    %ebp
 3b9:	c3                   	ret    

000003ba <fork>:
  name: \
    movl $SYS_ ## name, %eax; \
    int $T_SYSCALL; \
    ret

SYSCALL(fork)
 3ba:	b8 01 00 00 00       	mov    $0x1,%eax
 3bf:	cd 40                	int    $0x40
 3c1:	c3                   	ret    

000003c2 <exit>:
SYSCALL(exit)
 3c2:	b8 02 00 00 00       	mov    $0x2,%eax
 3c7:	cd 40                	int    $0x40
 3c9:	c3                   	ret    

000003ca <wait>:
SYSCALL(wait)
 3ca:	b8 03 00 00 00       	mov    $0x3,%eax
 3cf:	cd 40                	int    $0x40
 3d1:	c3                   	ret    

000003d2 <pipe>:
SYSCALL(pipe)
 3d2:	b8 04 00 00 00       	mov    $0x4,%eax
 3d7:	cd 40                	int    $0x40
 3d9:	c3                   	ret    

000003da <read>:
SYSCALL(read)
 3da:	b8 05 00 00 00       	mov    $0x5,%eax
 3df:	cd 40                	int    $0x40
 3e1:	c3                   	ret    

000003e2 <write>:
SYSCALL(write)
 3e2:	b8 10 00 00 00       	mov    $0x10,%eax
 3e7:	cd 40                	int    $0x40
 3e9:	c3                   	ret    

000003ea <close>:
SYSCALL(close)
 3ea:	b8 15 00 00 00       	mov    $0x15,%eax
 3ef:	cd 40                	int    $0x40
 3f1:	c3                   	ret    

000003f2 <kill>:
SYSCALL(kill)
 3f2:	b8 06 00 00 00       	mov    $0x6,%eax
 3f7:	cd 40                	int    $0x40
 3f9:	c3                   	ret    

000003fa <exec>:
SYSCALL(exec)
 3fa:	b8 07 00 00 00       	mov    $0x7,%eax
 3ff:	cd 40                	int    $0x40
 401:	c3                   	ret    

00000402 <open>:
SYSCALL(open)
 402:	b8 0f 00 00 00       	mov    $0xf,%eax
 407:	cd 40                	int    $0x40
 409:	c3                   	ret    

0000040a <mknod>:
SYSCALL(mknod)
 40a:	b8 11 00 00 00       	mov    $0x11,%eax
 40f:	cd 40                	int    $0x40
 411:	c3                   	ret    

00000412 <unlink>:
SYSCALL(unlink)
 412:	b8 12 00 00 00       	mov    $0x12,%eax
 417:	cd 40                	int    $0x40
 419:	c3                   	ret    

0000041a <fstat>:
SYSCALL(fstat)
 41a:	b8 08 00 00 00       	mov    $0x8,%eax
 41f:	cd 40                	int    $0x40
 421:	c3                   	ret    

00000422 <link>:
SYSCALL(link)
 422:	b8 13 00 00 00       	mov    $0x13,%eax
 427:	cd 40                	int    $0x40
 429:	c3                   	ret    

0000042a <mkdir>:
SYSCALL(mkdir)
 42a:	b8 14 00 00 00       	mov    $0x14,%eax
 42f:	cd 40                	int    $0x40
 431:	c3                   	ret    

00000432 <chdir>:
SYSCALL(chdir)
 432:	b8 09 00 00 00       	mov    $0x9,%eax
 437:	cd 40                	int    $0x40
 439:	c3                   	ret    

0000043a <dup>:
SYSCALL(dup)
 43a:	b8 0a 00 00 00       	mov    $0xa,%eax
 43f:	cd 40                	int    $0x40
 441:	c3                   	ret    

00000442 <getpid>:
SYSCALL(getpid)
 442:	b8 0b 00 00 00       	mov    $0xb,%eax
 447:	cd 40                	int    $0x40
 449:	c3                   	ret    

0000044a <sbrk>:
SYSCALL(sbrk)
 44a:	b8 0c 00 00 00       	mov    $0xc,%eax
 44f:	cd 40                	int    $0x40
 451:	c3                   	ret    

00000452 <sleep>:
SYSCALL(sleep)
 452:	b8 0d 00 00 00       	mov    $0xd,%eax
 457:	cd 40                	int    $0x40
 459:	c3                   	ret    

0000045a <uptime>:
SYSCALL(uptime)
 45a:	b8 0e 00 00 00       	mov    $0xe,%eax
 45f:	cd 40                	int    $0x40
 461:	c3                   	ret    

00000462 <getpinfo>:
SYSCALL(getpinfo)
 462:	b8 16 00 00 00       	mov    $0x16,%eax
 467:	cd 40                	int    $0x40
 469:	c3                   	ret    
